; Function Attrs: nounwind uwtable
define dso_local ptr @archive_entry_acl_text_w(ptr noundef %0, i32 noundef %1) local_unnamed_addr #0 {
  %3 = getelementptr inbounds nuw i8, ptr %0, i64 1096
  %4 = load ptr, ptr %3, align 8, !tbaa !90
  tail call void @free(ptr noundef %4) #21
  store ptr null, ptr %3, align 8, !tbaa !90
  %5 = and i32 %1, 768
  %6 = icmp eq i32 %5, 0
  br i1 %6, label %archive_entry_acl_text_compat.exit, label %7

7:                                                ; preds = %2
  %8 = lshr i32 %1, 10
  %9 = and i32 %8, 3
  %10 = or i32 %1, %9
  %11 = or i32 %10, 8
  %12 = getelementptr inbounds nuw i8, ptr %0, i64 1064
  %13 = load ptr, ptr %0, align 8, !tbaa !25
  %14 = tail call ptr @archive_acl_to_text_w(ptr noundef nonnull %12, ptr noundef null, i32 noundef %11, ptr noundef %13) #21
  store ptr %14, ptr %3, align 8, !tbaa !90
  br label %archive_entry_acl_text_compat.exit

archive_entry_acl_text_compat.exit:               ; preds = %2, %7
  %15 = phi ptr [ null, %2 ], [ %14, %7 ]
  ret ptr %15
}